; Function Attrs: nounwind uwtable
define ptr @l_Float32_toInt32___boxed(ptr noundef %0) local_unnamed_addr #0 {
  %2 = getelementptr i8, ptr %0, i64 8
  %.val = load float, ptr %2, align 4, !tbaa !4
  %3 = ptrtoint ptr %0 to i64
  %4 = and i64 %3, 1
  %.not = icmp eq i64 %4, 0
  br i1 %.not, label %5, label %lean_dec.exit

5:                                                ; preds = %1
  %6 = load i32, ptr %0, align 4, !tbaa !8
  %7 = icmp sgt i32 %6, 1
  br i1 %7, label %8, label %10, !prof !11

8:                                                ; preds = %5
  %9 = add nsw i32 %6, -1
  store i32 %9, ptr %0, align 4, !tbaa !8
  br label %lean_dec.exit

10:                                               ; preds = %5
  %.not.i = icmp eq i32 %6, 0
  br i1 %.not.i, label %lean_dec.exit, label %11

11:                                               ; preds = %10
  tail call void @lean_dec_ref_cold(ptr noundef nonnull %0) #3
  br label %lean_dec.exit

lean_dec.exit:                                    ; preds = %11, %10, %8, %1
  %12 = tail call zeroext i8 @lean_float32_isnan(float noundef %.val) #3
  %.not.i4 = icmp eq i8 %12, 0
  br i1 %.not.i4, label %13, label %lean_float32_to_int32.exit

13:                                               ; preds = %lean_dec.exit
  %14 = fpext float %.val to double
  %15 = fcmp ogt double %14, 0xC1E0000000200000
  %16 = fcmp olt float %.val, 0x41E0000000000000
  %17 = fptosi float %.val to i32
  %18 = zext i32 %17 to i64
  %19 = shl nuw nsw i64 %18, 1
  %20 = or disjoint i64 %19, 1
  %21 = select i1 %16, i64 %20, i64 4294967295
  %22 = select i1 %15, i64 %21, i64 4294967297
  br label %lean_float32_to_int32.exit

lean_float32_to_int32.exit:                       ; preds = %lean_dec.exit, %13
  %.0.i = phi i64 [ %22, %13 ], [ 1, %lean_dec.exit ]
  %23 = inttoptr i64 %.0.i to ptr
  ret ptr %23
}